; ModuleID = '3/2005.cpp'
source_filename = "3/2005.cpp"
target datalayout = "e-m:e-p270:32:32-p271:32:32-p272:64:64-i64:64-f80:128-n8:16:32:64-S128"
target triple = "x86_64-pc-linux-gnu"

%"class.std::ios_base::Init" = type { i8 }
%"class.std::basic_istream" = type { i32 (...)**, i64, %"class.std::basic_ios" }
%"class.std::basic_ios" = type { %"class.std::ios_base", %"class.std::basic_ostream"*, i8, i8, %"class.std::basic_streambuf"*, %"class.std::ctype"*, %"class.std::num_put"*, %"class.std::num_get"* }
%"class.std::ios_base" = type { i32 (...)**, i64, i64, i32, i32, i32, %"struct.std::ios_base::_Callback_list"*, %"struct.std::ios_base::_Words", [8 x %"struct.std::ios_base::_Words"], i32, %"struct.std::ios_base::_Words"*, %"class.std::locale" }
%"struct.std::ios_base::_Callback_list" = type { %"struct.std::ios_base::_Callback_list"*, void (i32, %"class.std::ios_base"*, i32)*, i32, i32 }
%"struct.std::ios_base::_Words" = type { i8*, i64 }
%"class.std::locale" = type { %"class.std::locale::_Impl"* }
%"class.std::locale::_Impl" = type { i32, %"class.std::locale::facet"**, i64, %"class.std::locale::facet"**, i8** }
%"class.std::locale::facet" = type <{ i32 (...)**, i32, [4 x i8] }>
%"class.std::basic_ostream" = type { i32 (...)**, %"class.std::basic_ios" }
%"class.std::basic_streambuf" = type { i32 (...)**, i8*, i8*, i8*, i8*, i8*, i8*, %"class.std::locale" }
%"class.std::ctype" = type <{ %"class.std::locale::facet.base", [4 x i8], %struct.__locale_struct*, i8, [7 x i8], i32*, i32*, i16*, i8, [256 x i8], [256 x i8], i8, [6 x i8] }>
%"class.std::locale::facet.base" = type <{ i32 (...)**, i32 }>
%struct.__locale_struct = type { [13 x %struct.__locale_data*], i16*, i32*, i32*, [13 x i8*] }
%struct.__locale_data = type opaque
%"class.std::num_put" = type { %"class.std::locale::facet.base", [4 x i8] }
%"class.std::num_get" = type { %"class.std::locale::facet.base", [4 x i8] }

@_ZStL8__ioinit = internal global %"class.std::ios_base::Init" zeroinitializer, align 1
@__dso_handle = external hidden global i8
@_ZSt3cin = external dso_local global %"class.std::basic_istream", align 8
@_ZSt4cout = external dso_local global %"class.std::basic_ostream", align 8
@.str = private unnamed_addr constant [3 x i8] c"no\00", align 1
@.str.1 = private unnamed_addr constant [4 x i8] c"yes\00", align 1
@llvm.global_ctors = appending global [1 x { i32, void ()*, i8* }] [{ i32, void ()*, i8* } { i32 65535, void ()* @_GLOBAL__sub_I_2005.cpp, i8* null }]

; Function Attrs: noinline uwtable
define internal void @__cxx_global_var_init() #0 section ".text.startup" {
  call void @_ZNSt8ios_base4InitC1Ev(%"class.std::ios_base::Init"* @_ZStL8__ioinit)
  %1 = call i32 @__cxa_atexit(void (i8*)* bitcast (void (%"class.std::ios_base::Init"*)* @_ZNSt8ios_base4InitD1Ev to void (i8*)*), i8* getelementptr inbounds (%"class.std::ios_base::Init", %"class.std::ios_base::Init"* @_ZStL8__ioinit, i32 0, i32 0), i8* @__dso_handle) #3
  ret void
}

declare dso_local void @_ZNSt8ios_base4InitC1Ev(%"class.std::ios_base::Init"*) unnamed_addr #1

; Function Attrs: nounwind
declare dso_local void @_ZNSt8ios_base4InitD1Ev(%"class.std::ios_base::Init"*) unnamed_addr #2

; Function Attrs: nounwind
declare dso_local i32 @__cxa_atexit(void (i8*)*, i8*, i8*) #3

; Function Attrs: noinline norecurse uwtable
define dso_local i32 @main() #4 {
  %1 = alloca i32, align 4
  %2 = alloca i32, align 4
  %3 = alloca i32, align 4
  %4 = alloca i32, align 4
  %5 = alloca i32, align 4
  %6 = alloca i8*, align 8
  %7 = alloca i64, align 8
  %8 = alloca i32, align 4
  %9 = alloca i32, align 4
  %10 = alloca i32, align 4
  store i32 0, i32* %1, align 4
  store i32 1, i32* %5, align 4
  %11 = call dereferenceable(280) %"class.std::basic_istream"* @_ZNSirsERi(%"class.std::basic_istream"* @_ZSt3cin, i32* dereferenceable(4) %2)
  %12 = call dereferenceable(280) %"class.std::basic_istream"* @_ZNSirsERi(%"class.std::basic_istream"* %11, i32* dereferenceable(4) %3)
  %13 = load i32, i32* %2, align 4
  %14 = zext i32 %13 to i64
  %15 = call i8* @llvm.stacksave()
  store i8* %15, i8** %6, align 8
  %16 = alloca i32, i64 %14, align 16
  store i64 %14, i64* %7, align 8
  store i32 1, i32* %8, align 4
  br label %17

17:                                               ; preds = %27, %0
  %18 = load i32, i32* %8, align 4
  %19 = load i32, i32* %2, align 4
  %20 = icmp sle i32 %18, %19
  br i1 %20, label %21, label %30

21:                                               ; preds = %17
  %22 = load i32, i32* %8, align 4
  %23 = sub nsw i32 %22, 1
  %24 = sext i32 %23 to i64
  %25 = getelementptr inbounds i32, i32* %16, i64 %24
  %26 = call dereferenceable(280) %"class.std::basic_istream"* @_ZNSirsERi(%"class.std::basic_istream"* @_ZSt3cin, i32* dereferenceable(4) %25)
  br label %27

27:                                               ; preds = %21
  %28 = load i32, i32* %8, align 4
  %29 = add nsw i32 %28, 1
  store i32 %29, i32* %8, align 4
  br label %17

30:                                               ; preds = %17
  store i32 1, i32* %9, align 4
  br label %31

31:                                               ; preds = %71, %30
  %32 = load i32, i32* %9, align 4
  %33 = load i32, i32* %2, align 4
  %34 = icmp sle i32 %32, %33
  br i1 %34, label %35, label %74

35:                                               ; preds = %31
  %36 = load i32, i32* %3, align 4
  %37 = load i32, i32* %9, align 4
  %38 = sub nsw i32 %37, 1
  %39 = sext i32 %38 to i64
  %40 = getelementptr inbounds i32, i32* %16, i64 %39
  %41 = load i32, i32* %40, align 4
  %42 = sub nsw i32 %36, %41
  store i32 %42, i32* %4, align 4
  store i32 1, i32* %10, align 4
  br label %43

43:                                               ; preds = %67, %35
  %44 = load i32, i32* %10, align 4
  %45 = load i32, i32* %2, align 4
  %46 = icmp sle i32 %44, %45
  br i1 %46, label %47, label %70

47:                                               ; preds = %43
  %48 = load i32, i32* %10, align 4
  %49 = sub nsw i32 %48, 1
  %50 = sext i32 %49 to i64
  %51 = getelementptr inbounds i32, i32* %16, i64 %50
  %52 = load i32, i32* %51, align 4
  %53 = load i32, i32* %4, align 4
  %54 = icmp eq i32 %52, %53
  br i1 %54, label %55, label %66

55:                                               ; preds = %47
  %56 = load i32, i32* %9, align 4
  %57 = sub nsw i32 %56, 1
  %58 = sext i32 %57 to i64
  %59 = getelementptr inbounds i32, i32* %16, i64 %58
  %60 = load i32, i32* %59, align 4
  %61 = load i32, i32* %4, align 4
  %62 = icmp ne i32 %60, %61
  br i1 %62, label %63, label %66

63:                                               ; preds = %55
  %64 = load i32, i32* %5, align 4
  %65 = add nsw i32 %64, 1
  store i32 %65, i32* %5, align 4
  br label %66

66:                                               ; preds = %63, %55, %47
  br label %67

67:                                               ; preds = %66
  %68 = load i32, i32* %10, align 4
  %69 = add nsw i32 %68, 1
  store i32 %69, i32* %10, align 4
  br label %43

70:                                               ; preds = %43
  br label %71

71:                                               ; preds = %70
  %72 = load i32, i32* %9, align 4
  %73 = add nsw i32 %72, 1
  store i32 %73, i32* %9, align 4
  br label %31

74:                                               ; preds = %31
  %75 = load i32, i32* %5, align 4
  %76 = icmp eq i32 %75, 1
  br i1 %76, label %77, label %79

77:                                               ; preds = %74
  %78 = call dereferenceable(272) %"class.std::basic_ostream"* @_ZStlsISt11char_traitsIcEERSt13basic_ostreamIcT_ES5_PKc(%"class.std::basic_ostream"* dereferenceable(272) @_ZSt4cout, i8* getelementptr inbounds ([3 x i8], [3 x i8]* @.str, i64 0, i64 0))
  br label %79

79:                                               ; preds = %77, %74
  %80 = load i32, i32* %5, align 4
  %81 = icmp ne i32 %80, 1
  br i1 %81, label %82, label %84

82:                                               ; preds = %79
  %83 = call dereferenceable(272) %"class.std::basic_ostream"* @_ZStlsISt11char_traitsIcEERSt13basic_ostreamIcT_ES5_PKc(%"class.std::basic_ostream"* dereferenceable(272) @_ZSt4cout, i8* getelementptr inbounds ([4 x i8], [4 x i8]* @.str.1, i64 0, i64 0))
  br label %84

84:                                               ; preds = %82, %79
  store i32 0, i32* %1, align 4
  %85 = load i8*, i8** %6, align 8
  call void @llvm.stackrestore(i8* %85)
  %86 = load i32, i32* %1, align 4
  ret i32 %86
}

declare dso_local dereferenceable(280) %"class.std::basic_istream"* @_ZNSirsERi(%"class.std::basic_istream"*, i32* dereferenceable(4)) #1

; Function Attrs: nounwind
declare i8* @llvm.stacksave() #3

declare dso_local dereferenceable(272) %"class.std::basic_ostream"* @_ZStlsISt11char_traitsIcEERSt13basic_ostreamIcT_ES5_PKc(%"class.std::basic_ostream"* dereferenceable(272), i8*) #1

; Function Attrs: nounwind
declare void @llvm.stackrestore(i8*) #3

; Function Attrs: noinline uwtable
define internal void @_GLOBAL__sub_I_2005.cpp() #0 section ".text.startup" {
  call void @__cxx_global_var_init()
  ret void
}


!llvm.module.flags = !{!0}
!llvm.ident = !{!1}

!0 = !{i32 1, !"wchar_size", i32 4}
!1 = !{!"clang version 10.0.0-4ubuntu1 "}
